; Function Attrs: mustprogress nounwind uwtable
define void @_ZN7Imf_3_215OpaqueAttributeD2Ev(ptr noundef nonnull align 8 dereferenceable(64) %this) unnamed_addr #5 align 2 {
entry:
  store ptr getelementptr inbounds ({ [9 x ptr] }, ptr @_ZTVN7Imf_3_215OpaqueAttributeE, i64 0, i32 0, i64 2), ptr %this, align 8
  %_data.i = getelementptr inbounds i8, ptr %this, i64 56
  %0 = load ptr, ptr %_data.i, align 8
  %isnull.i = icmp eq ptr %0, null
  br i1 %isnull.i, label %_ZN7Imf_3_25ArrayIcED2Ev.exit, label %delete.notnull.i

delete.notnull.i:                                 ; preds = %entry
  tail call void @_ZdaPv(ptr noundef nonnull %0) #18
  br label %_ZN7Imf_3_25ArrayIcED2Ev.exit

_ZN7Imf_3_25ArrayIcED2Ev.exit:                    ; preds = %entry, %delete.notnull.i
  %_typeName = getelementptr inbounds i8, ptr %this, i64 8
  tail call void @_ZNSt7__cxx1112basic_stringIcSt11char_traitsIcESaIcEED1Ev(ptr noundef nonnull align 8 dereferenceable(32) %_typeName) #15
  tail call void @_ZN7Imf_3_29AttributeD2Ev(ptr noundef nonnull align 8 dereferenceable(8) %this) #15
  ret void
}